target datalayout = "e-m:e-p270:32:32-p271:32:32-p272:64:64-i64:64-i128:128-f80:128-n8:16:32:64-S128"
target triple = "x86_64-pc-linux-gnu"

%struct.filter_data_st = type { i32, ptr, ptr }

; Function Attrs: nounwind uwtable
define internal void @filter_on_operation_id(i32 noundef %0, ptr noundef %1, ptr noundef %2) #0 {
  %4 = alloca i32, align 4
  %5 = alloca ptr, align 8
  %6 = alloca ptr, align 8
  %7 = alloca ptr, align 8
  store i32 %0, ptr %4, align 4, !tbaa !8
  store ptr %1, ptr %5, align 8, !tbaa !12
  store ptr %2, ptr %6, align 8, !tbaa !12
  call void @llvm.lifetime.start.p0(i64 8, ptr %7) #6
  %8 = load ptr, ptr %6, align 8, !tbaa !12
  store ptr %8, ptr %7, align 8, !tbaa !41
  %9 = load i32, ptr %4, align 4, !tbaa !8
  %10 = and i32 %9, 255
  %11 = load ptr, ptr %7, align 8, !tbaa !41
  %12 = getelementptr inbounds nuw %struct.filter_data_st, ptr %11, i32 0, i32 0
  %13 = load i32, ptr %12, align 8, !tbaa !37
  %14 = icmp eq i32 %10, %13
  br i1 %14, label %15, label %23

15:                                               ; preds = %3
  %16 = load ptr, ptr %7, align 8, !tbaa !41
  %17 = getelementptr inbounds nuw %struct.filter_data_st, ptr %16, i32 0, i32 1
  %18 = load ptr, ptr %17, align 8, !tbaa !39
  %19 = load ptr, ptr %5, align 8, !tbaa !12
  %20 = load ptr, ptr %7, align 8, !tbaa !41
  %21 = getelementptr inbounds nuw %struct.filter_data_st, ptr %20, i32 0, i32 2
  %22 = load ptr, ptr %21, align 8, !tbaa !40
  call void %18(ptr noundef %19, ptr noundef %22)
  br label %23

23:                                               ; preds = %15, %3
  call void @llvm.lifetime.end.p0(i64 8, ptr %7) #6
  ret void
}