; Function Attrs: nounwind uwtable
define internal void @filter_on_operation_id(i32 noundef %0, ptr noundef %1, ptr noundef readonly captures(none) %2) #0 {
  %4 = and i32 %0, 255
  %5 = load i32, ptr %2, align 8, !tbaa !26
  %6 = icmp eq i32 %4, %5
  br i1 %6, label %7, label %12

7:                                                ; preds = %3
  %8 = getelementptr inbounds nuw i8, ptr %2, i64 8
  %9 = load ptr, ptr %8, align 8, !tbaa !28
  %10 = getelementptr inbounds nuw i8, ptr %2, i64 16
  %11 = load ptr, ptr %10, align 8, !tbaa !29
  tail call void %9(ptr noundef %1, ptr noundef %11) #5
  br label %12

12:                                               ; preds = %7, %3
  ret void
}